target datalayout = "e-m:e-p270:32:32-p271:32:32-p272:64:64-i64:64-i128:128-f80:128-n8:16:32:64-S128"
target triple = "x86_64-pc-linux-gnu"

%"class.std::__cxx11::basic_string" = type { %"struct.std::__cxx11::basic_string<char>::_Alloc_hider", i64, %union.anon }
%"struct.std::__cxx11::basic_string<char>::_Alloc_hider" = type { ptr }
%union.anon = type { i64, [8 x i8] }
%"struct.Luau::TypePackMismatch" = type { ptr, ptr, %"class.std::__cxx11::basic_string" }

; Function Attrs: mustprogress uwtable
define dso_local noundef zeroext i1 @_ZNK4Luau16TypePackMismatcheqERKS0_(ptr noundef nonnull align 8 dereferenceable(48) %0, ptr noundef nonnull align 8 dereferenceable(48) %1) #3 align 2 {
  %3 = alloca ptr, align 8
  %4 = alloca ptr, align 8
  store ptr %0, ptr %3, align 8, !tbaa !299
  store ptr %1, ptr %4, align 8, !tbaa !299
  %5 = load ptr, ptr %3, align 8
  %6 = getelementptr inbounds nuw %"struct.Luau::TypePackMismatch", ptr %5, i32 0, i32 0
  %7 = load ptr, ptr %6, align 8, !tbaa !301
  %8 = load ptr, ptr %4, align 8, !tbaa !299
  %9 = getelementptr inbounds nuw %"struct.Luau::TypePackMismatch", ptr %8, i32 0, i32 0
  %10 = load ptr, ptr %9, align 8, !tbaa !301
  %11 = call noundef zeroext i1 @_ZNK4Luau11TypePackVareqERKS0_(ptr noundef nonnull align 8 dereferenceable(88) %7, ptr noundef nonnull align 8 dereferenceable(88) %10)
  br i1 %11, label %12, label %19

12:                                               ; preds = %2
  %13 = getelementptr inbounds nuw %"struct.Luau::TypePackMismatch", ptr %5, i32 0, i32 1
  %14 = load ptr, ptr %13, align 8, !tbaa !303
  %15 = load ptr, ptr %4, align 8, !tbaa !299
  %16 = getelementptr inbounds nuw %"struct.Luau::TypePackMismatch", ptr %15, i32 0, i32 1
  %17 = load ptr, ptr %16, align 8, !tbaa !303
  %18 = call noundef zeroext i1 @_ZNK4Luau11TypePackVareqERKS0_(ptr noundef nonnull align 8 dereferenceable(88) %14, ptr noundef nonnull align 8 dereferenceable(88) %17)
  br label %19

19:                                               ; preds = %12, %2
  %20 = phi i1 [ false, %2 ], [ %18, %12 ]
  ret i1 %20
}