; Function Attrs: mustprogress uwtable
define dso_local noundef zeroext i1 @_ZNK4Luau16TypePackMismatcheqERKS0_(ptr noundef nonnull readonly align 8 captures(none) dereferenceable(48) %0, ptr noundef nonnull readonly align 8 captures(none) dereferenceable(48) %1) local_unnamed_addr #5 align 2 {
  %3 = load ptr, ptr %0, align 8, !tbaa !190
  %4 = load ptr, ptr %1, align 8, !tbaa !190
  %5 = tail call noundef zeroext i1 @_ZNK4Luau11TypePackVareqERKS0_(ptr noundef nonnull align 8 dereferenceable(88) %3, ptr noundef nonnull align 8 dereferenceable(88) %4)
  br i1 %5, label %6, label %12

6:                                                ; preds = %2
  %7 = getelementptr inbounds nuw i8, ptr %0, i64 8
  %8 = load ptr, ptr %7, align 8, !tbaa !192
  %9 = getelementptr inbounds nuw i8, ptr %1, i64 8
  %10 = load ptr, ptr %9, align 8, !tbaa !192
  %11 = tail call noundef zeroext i1 @_ZNK4Luau11TypePackVareqERKS0_(ptr noundef nonnull align 8 dereferenceable(88) %8, ptr noundef nonnull align 8 dereferenceable(88) %10)
  br label %12

12:                                               ; preds = %6, %2
  %13 = phi i1 [ false, %2 ], [ %11, %6 ]
  ret i1 %13
}